target datalayout = "e-m:e-p270:32:32-p271:32:32-p272:64:64-i64:64-i128:128-f80:128-n8:16:32:64-S128"
target triple = "x86_64-pc-linux-gnu"

; Function Attrs: nounwind uwtable
define hidden ptr @DGifOpenFileName(ptr noundef %0, ptr noundef %1) #0 {
  %3 = alloca ptr, align 8
  %4 = alloca ptr, align 8
  %5 = alloca ptr, align 8
  %6 = alloca i32, align 4
  %7 = alloca ptr, align 8
  store ptr %0, ptr %4, align 8
  store ptr %1, ptr %5, align 8
  %8 = load ptr, ptr %4, align 8
  %9 = call i32 (ptr, i32, ...) @open64(ptr noundef %8, i32 noundef 0)
  store i32 %9, ptr %6, align 4
  %10 = icmp eq i32 %9, -1
  br i1 %10, label %11, label %17

11:                                               ; preds = %2
  %12 = load ptr, ptr %5, align 8
  %13 = icmp ne ptr %12, null
  br i1 %13, label %14, label %16

14:                                               ; preds = %11
  %15 = load ptr, ptr %5, align 8
  store i32 101, ptr %15, align 4
  br label %16

16:                                               ; preds = %14, %11
  store ptr null, ptr %3, align 8
  br label %22

17:                                               ; preds = %2
  %18 = load i32, ptr %6, align 4
  %19 = load ptr, ptr %5, align 8
  %20 = call ptr @DGifOpenFileHandle(i32 noundef %18, ptr noundef %19)
  store ptr %20, ptr %7, align 8
  %21 = load ptr, ptr %7, align 8
  store ptr %21, ptr %3, align 8
  br label %22

22:                                               ; preds = %17, %16
  %23 = load ptr, ptr %3, align 8
  ret ptr %23
}