; Function Attrs: nounwind uwtable
define hidden noundef ptr @DGifOpenFileName(ptr nocapture noundef readonly %0, ptr noundef %1) local_unnamed_addr #0 {
  %3 = tail call i32 (ptr, i32, ...) @open64(ptr noundef %0, i32 noundef 0) #14
  %4 = icmp eq i32 %3, -1
  br i1 %4, label %5, label %7

5:                                                ; preds = %2
  %.not = icmp eq ptr %1, null
  br i1 %.not, label %9, label %6

6:                                                ; preds = %5
  store i32 101, ptr %1, align 4
  br label %9

7:                                                ; preds = %2
  %8 = tail call ptr @DGifOpenFileHandle(i32 noundef %3, ptr noundef %1)
  br label %9

9:                                                ; preds = %5, %6, %7
  %.0 = phi ptr [ %8, %7 ], [ null, %6 ], [ null, %5 ]
  ret ptr %.0
}